target datalayout = "e-m:e-p270:32:32-p271:32:32-p272:64:64-i64:64-i128:128-f80:128-n8:16:32:64-S128"
target triple = "x86_64-pc-linux-gnu"

%"struct.pkpy::Str" = type { i32, i8, ptr, [16 x i8] }

@_ZN4pkpy3StrC1ERKS0_ = unnamed_addr alias void (ptr, ptr), ptr @_ZN4pkpy3StrC2ERKS0_
@_ZN4pkpy3StrD1Ev = unnamed_addr alias void (ptr), ptr @_ZN4pkpy3StrD2Ev

; Function Attrs: mustprogress uwtable
define void @_ZNK4pkpy3Str7replaceEcc(ptr dead_on_unwind noalias writable sret(%"struct.pkpy::Str") align 8 %0, ptr noundef nonnull align 8 dereferenceable(32) %1, i8 noundef signext %2, i8 noundef signext %3) #4 align 2 {
  %5 = alloca ptr, align 8
  %6 = alloca ptr, align 8
  %7 = alloca i8, align 1
  %8 = alloca i8, align 1
  %9 = alloca i1, align 1
  %10 = alloca i32, align 4
  store ptr %0, ptr %5, align 8
  store ptr %1, ptr %6, align 8
  store i8 %2, ptr %7, align 1
  store i8 %3, ptr %8, align 1
  %11 = load ptr, ptr %6, align 8
  store i1 false, ptr %9, align 1
  call void @_ZN4pkpy3StrC1ERKS0_(ptr noundef nonnull align 8 dereferenceable(32) %0, ptr noundef nonnull align 8 dereferenceable(32) %11)
  store i32 0, ptr %10, align 4
  br label %12

12:                                               ; preds = %36, %4
  %13 = load i32, ptr %10, align 4
  %14 = getelementptr inbounds %"struct.pkpy::Str", ptr %0, i32 0, i32 0
  %15 = load i32, ptr %14, align 8
  %16 = icmp slt i32 %13, %15
  br i1 %16, label %17, label %39

17:                                               ; preds = %12
  %18 = getelementptr inbounds %"struct.pkpy::Str", ptr %0, i32 0, i32 2
  %19 = load ptr, ptr %18, align 8
  %20 = load i32, ptr %10, align 4
  %21 = sext i32 %20 to i64
  %22 = getelementptr inbounds i8, ptr %19, i64 %21
  %23 = load i8, ptr %22, align 1
  %24 = sext i8 %23 to i32
  %25 = load i8, ptr %7, align 1
  %26 = sext i8 %25 to i32
  %27 = icmp eq i32 %24, %26
  br i1 %27, label %28, label %35

28:                                               ; preds = %17
  %29 = load i8, ptr %8, align 1
  %30 = getelementptr inbounds %"struct.pkpy::Str", ptr %0, i32 0, i32 2
  %31 = load ptr, ptr %30, align 8
  %32 = load i32, ptr %10, align 4
  %33 = sext i32 %32 to i64
  %34 = getelementptr inbounds i8, ptr %31, i64 %33
  store i8 %29, ptr %34, align 1
  br label %35

35:                                               ; preds = %28, %17
  br label %36

36:                                               ; preds = %35
  %37 = load i32, ptr %10, align 4
  %38 = add nsw i32 %37, 1
  store i32 %38, ptr %10, align 4
  br label %12, !llvm.loop !20

39:                                               ; preds = %12
  store i1 true, ptr %9, align 1
  %40 = load i1, ptr %9, align 1
  br i1 %40, label %42, label %41

41:                                               ; preds = %39
  call void @_ZN4pkpy3StrD1Ev(ptr noundef nonnull align 8 dereferenceable(32) %0) #3
  br label %42

42:                                               ; preds = %41, %39
  ret void
}