; Function Attrs: mustprogress uwtable
define void @_ZNK4pkpy3Str7replaceEcc(ptr dead_on_unwind noalias writable sret(%"struct.pkpy::Str") align 8 %0, ptr noundef nonnull align 8 dereferenceable(32) %1, i8 noundef signext %2, i8 noundef signext %3) local_unnamed_addr #3 align 2 {
  tail call void @_ZN4pkpy3StrC1ERKS0_(ptr noundef nonnull align 8 dereferenceable(32) %0, ptr noundef nonnull align 8 dereferenceable(32) %1)
  %5 = load i32, ptr %0, align 8
  %6 = icmp sgt i32 %5, 0
  br i1 %6, label %.lr.ph, label %._crit_edge

.lr.ph:                                           ; preds = %4
  %7 = getelementptr inbounds i8, ptr %0, i64 8
  br label %8

8:                                                ; preds = %.lr.ph, %15
  %9 = phi i32 [ %5, %.lr.ph ], [ %16, %15 ]
  %indvars.iv = phi i64 [ 0, %.lr.ph ], [ %indvars.iv.next, %15 ]
  %10 = load ptr, ptr %7, align 8
  %11 = getelementptr inbounds i8, ptr %10, i64 %indvars.iv
  %12 = load i8, ptr %11, align 1
  %13 = icmp eq i8 %12, %2
  br i1 %13, label %14, label %15

14:                                               ; preds = %8
  store i8 %3, ptr %11, align 1
  %.pre = load i32, ptr %0, align 8
  br label %15

15:                                               ; preds = %8, %14
  %16 = phi i32 [ %9, %8 ], [ %.pre, %14 ]
  %indvars.iv.next = add nuw nsw i64 %indvars.iv, 1
  %17 = sext i32 %16 to i64
  %18 = icmp slt i64 %indvars.iv.next, %17
  br i1 %18, label %8, label %._crit_edge, !llvm.loop !67

._crit_edge:                                      ; preds = %15, %4
  ret void
}